target datalayout = "e-m:e-p270:32:32-p271:32:32-p272:64:64-i64:64-i128:128-f80:128-n8:16:32:64-S128"
target triple = "x86_64-pc-linux-gnu"

%struct.re_pattern_buffer = type { ptr, i32, i32, i32, i32, i32, i32, i32, i32, i32, i32, i32, i32, i32, ptr, ptr, ptr, ptr, i32, i32, i32, i32, i64, i64, i32, ptr, ptr, [256 x i8], ptr, ptr, i64, i64, i64, ptr }
%struct.INamesArg = type { ptr, ptr, ptr, i32, ptr }

; Function Attrs: nounwind sspstrong uwtable
define dso_local i32 @onig_foreach_name(ptr noundef %0, ptr noundef %1, ptr noundef %2) #0 {
  %4 = alloca ptr, align 8
  %5 = alloca ptr, align 8
  %6 = alloca ptr, align 8
  %7 = alloca %struct.INamesArg, align 8
  %8 = alloca ptr, align 8
  store ptr %0, ptr %4, align 8, !tbaa !26
  store ptr %1, ptr %5, align 8, !tbaa !12
  store ptr %2, ptr %6, align 8, !tbaa !12
  call void @llvm.lifetime.start.p0(i64 40, ptr %7) #13
  call void @llvm.lifetime.start.p0(i64 8, ptr %8) #13
  %9 = load ptr, ptr %4, align 8, !tbaa !26
  %10 = getelementptr inbounds nuw %struct.re_pattern_buffer, ptr %9, i32 0, i32 17
  %11 = load ptr, ptr %10, align 8, !tbaa !28
  store ptr %11, ptr %8, align 8, !tbaa !32
  %12 = getelementptr inbounds nuw %struct.INamesArg, ptr %7, i32 0, i32 3
  store i32 0, ptr %12, align 8, !tbaa !38
  %13 = load ptr, ptr %8, align 8, !tbaa !32
  %14 = icmp ne ptr %13, null
  br i1 %14, label %15, label %29

15:                                               ; preds = %3
  %16 = load ptr, ptr %5, align 8, !tbaa !12
  %17 = getelementptr inbounds nuw %struct.INamesArg, ptr %7, i32 0, i32 0
  store ptr %16, ptr %17, align 8, !tbaa !40
  %18 = load ptr, ptr %4, align 8, !tbaa !26
  %19 = getelementptr inbounds nuw %struct.INamesArg, ptr %7, i32 0, i32 1
  store ptr %18, ptr %19, align 8, !tbaa !41
  %20 = load ptr, ptr %6, align 8, !tbaa !12
  %21 = getelementptr inbounds nuw %struct.INamesArg, ptr %7, i32 0, i32 2
  store ptr %20, ptr %21, align 8, !tbaa !42
  %22 = load ptr, ptr %4, align 8, !tbaa !26
  %23 = getelementptr inbounds nuw %struct.re_pattern_buffer, ptr %22, i32 0, i32 15
  %24 = load ptr, ptr %23, align 8, !tbaa !43
  %25 = getelementptr inbounds nuw %struct.INamesArg, ptr %7, i32 0, i32 4
  store ptr %24, ptr %25, align 8, !tbaa !44
  %26 = load ptr, ptr %8, align 8, !tbaa !32
  %27 = ptrtoint ptr %7 to i64
  %28 = call i32 @rb_st_foreach(ptr noundef %26, ptr noundef @i_names, i64 noundef %27)
  br label %29

29:                                               ; preds = %15, %3
  %30 = getelementptr inbounds nuw %struct.INamesArg, ptr %7, i32 0, i32 3
  %31 = load i32, ptr %30, align 8, !tbaa !38
  call void @llvm.lifetime.end.p0(i64 8, ptr %8) #13
  call void @llvm.lifetime.end.p0(i64 40, ptr %7) #13
  ret i32 %31
}